target datalayout = "e-m:e-p270:32:32-p271:32:32-p272:64:64-i64:64-i128:128-f80:128-n8:16:32:64-S128"
target triple = "x86_64-pc-linux-gnu"

%struct._value_string_ext = type { ptr, i32, i32, ptr, ptr }
%struct._packet_info = type { ptr, ptr, i32, i32, %struct.nstime_t, %struct.nstime_t, %struct.nstime_t, i8, ptr, ptr, ptr, ptr, %struct._address, %struct._address, %struct._address, %struct._address, %struct._address, %struct._address, i32, ptr, i8, [3 x i8], %struct.anon, i32, i32, i32, i32, ptr, i8, ptr, ptr, i16, i16, i32, i32, i16, i32, i32, ptr, ptr, ptr, i8, i8, i16, i16, i16, i32, i16, i16, ptr, ptr, ptr, ptr, ptr, i32, i32 }
%struct.nstime_t = type { i64, i32 }
%struct._address = type { i32, i32, ptr, ptr }
%struct.anon = type { i8, [3 x i8] }

@docsis_conf_code_ext = external global %struct._value_string_ext, align 8
@hf_docsis_regack_sid = internal global i32 0, align 4
@hf_docsis_regack_response = internal global i32 0, align 4
@ett_docsis_regack = internal global i32 0, align 4
@proto_docsis_regack = internal global i32 0, align 4
@docsis_tlv_handle = internal global ptr null, align 8
@.str.2033 = private unnamed_addr constant [3 x i8] c"%d\00", align 1
@.str.2176 = private unnamed_addr constant [39 x i8] c"Registration Acknowledge SID = %u (%s)\00", align 1

; Function Attrs: null_pointer_is_valid sspstrong uwtable
define internal i32 @dissect_regack(ptr noundef %0, ptr noundef %1, ptr noundef %2, ptr noundef %3) #0 {
  %5 = alloca ptr, align 8
  %6 = alloca ptr, align 8
  %7 = alloca ptr, align 8
  %8 = alloca ptr, align 8
  %9 = alloca ptr, align 8
  %10 = alloca ptr, align 8
  %11 = alloca i32, align 4
  %12 = alloca i32, align 4
  %13 = alloca ptr, align 8
  store ptr %0, ptr %5, align 8
  store ptr %1, ptr %6, align 8
  store ptr %2, ptr %7, align 8
  store ptr %3, ptr %8, align 8
  call void @llvm.lifetime.start.p0(i64 8, ptr %9) #6
  call void @llvm.lifetime.start.p0(i64 8, ptr %10) #6
  call void @llvm.lifetime.start.p0(i64 4, ptr %11) #6
  call void @llvm.lifetime.start.p0(i64 4, ptr %12) #6
  call void @llvm.lifetime.start.p0(i64 8, ptr %13) #6
  %14 = load ptr, ptr %7, align 8
  %15 = load i32, ptr @proto_docsis_regack, align 4
  %16 = load ptr, ptr %5, align 8
  %17 = call ptr @proto_tree_add_item(ptr noundef %14, i32 noundef %15, ptr noundef %16, i32 noundef 0, i32 noundef -1, i32 noundef 0)
  store ptr %17, ptr %9, align 8
  %18 = load ptr, ptr %9, align 8
  %19 = load i32, ptr @ett_docsis_regack, align 4
  %20 = call ptr @proto_item_add_subtree(ptr noundef %18, i32 noundef %19)
  store ptr %20, ptr %10, align 8
  %21 = load ptr, ptr %10, align 8
  %22 = load i32, ptr @hf_docsis_regack_sid, align 4
  %23 = load ptr, ptr %5, align 8
  %24 = call ptr @proto_tree_add_item_ret_uint(ptr noundef %21, i32 noundef %22, ptr noundef %23, i32 noundef 0, i32 noundef 2, i32 noundef 0, ptr noundef %11)
  %25 = load ptr, ptr %10, align 8
  %26 = load i32, ptr @hf_docsis_regack_response, align 4
  %27 = load ptr, ptr %5, align 8
  %28 = call ptr @proto_tree_add_item_ret_uint(ptr noundef %25, i32 noundef %26, ptr noundef %27, i32 noundef 2, i32 noundef 1, i32 noundef 0, ptr noundef %12)
  %29 = load ptr, ptr %6, align 8
  %30 = getelementptr inbounds nuw %struct._packet_info, ptr %29, i32 0, i32 1
  %31 = load ptr, ptr %30, align 8
  %32 = load i32, ptr %11, align 4
  %33 = load i32, ptr %12, align 4
  %34 = call ptr @val_to_str_ext(i32 noundef %33, ptr noundef @docsis_conf_code_ext, ptr noundef @.str.2033)
  call void (ptr, i32, ptr, ...) @col_add_fstr(ptr noundef %31, i32 noundef 25, ptr noundef @.str.2176, i32 noundef %32, ptr noundef %34)
  %35 = load ptr, ptr %5, align 8
  %36 = call i32 @tvb_reported_length_remaining(ptr noundef %35, i32 noundef 3)
  %37 = icmp sgt i32 %36, 0
  br i1 %37, label %38, label %46

38:                                               ; preds = %4
  %39 = load ptr, ptr %5, align 8
  %40 = call ptr @tvb_new_subset_remaining(ptr noundef %39, i32 noundef 3)
  store ptr %40, ptr %13, align 8
  %41 = load ptr, ptr @docsis_tlv_handle, align 8
  %42 = load ptr, ptr %13, align 8
  %43 = load ptr, ptr %6, align 8
  %44 = load ptr, ptr %10, align 8
  %45 = call i32 @call_dissector(ptr noundef %41, ptr noundef %42, ptr noundef %43, ptr noundef %44)
  br label %46

46:                                               ; preds = %38, %4
  %47 = load ptr, ptr %5, align 8
  %48 = call i32 @tvb_captured_length(ptr noundef %47)
  call void @llvm.lifetime.end.p0(i64 8, ptr %13) #6
  call void @llvm.lifetime.end.p0(i64 4, ptr %12) #6
  call void @llvm.lifetime.end.p0(i64 4, ptr %11) #6
  call void @llvm.lifetime.end.p0(i64 8, ptr %10) #6
  call void @llvm.lifetime.end.p0(i64 8, ptr %9) #6
  ret i32 %48
}